target datalayout = "e-m:e-p270:32:32-p271:32:32-p272:64:64-i64:64-i128:128-f80:128-n8:16:32:64-S128"
target triple = "x86_64-pc-linux-gnu"

%struct.X509_VERIFY_PARAM_st = type { ptr, i64, i32, i64, i32, i32, i32, i32, ptr, ptr, i32, ptr, ptr, i64, ptr, i64 }

@.str = private unnamed_addr constant [34 x i8] c"../openssl/crypto/x509/x509_vpm.c\00", align 1

; Function Attrs: inlinehint nounwind uwtable
define internal ptr @ossl_check_const_OPENSSL_STRING_sk_type(ptr noundef %0) #3 {
  %2 = alloca ptr, align 8
  store ptr %0, ptr %2, align 8, !tbaa !24
  %3 = load ptr, ptr %2, align 8, !tbaa !24
  ret ptr %3
}

; Function Attrs: inlinehint nounwind uwtable
define internal ptr @ossl_check_OPENSSL_STRING_type(ptr noundef %0) #3 {
  %2 = alloca ptr, align 8
  store ptr %0, ptr %2, align 8, !tbaa !25
  %3 = load ptr, ptr %2, align 8, !tbaa !25
  ret ptr %3
}

; Function Attrs: inlinehint nounwind uwtable
define internal ptr @ossl_check_OPENSSL_STRING_freefunc_type(ptr noundef %0) #3 {
  %2 = alloca ptr, align 8
  store ptr %0, ptr %2, align 8, !tbaa !23
  %3 = load ptr, ptr %2, align 8, !tbaa !23
  ret ptr %3
}

; Function Attrs: inlinehint nounwind uwtable
define internal ptr @ossl_check_OPENSSL_STRING_sk_type(ptr noundef %0) #3 {
  %2 = alloca ptr, align 8
  store ptr %0, ptr %2, align 8, !tbaa !24
  %3 = load ptr, ptr %2, align 8, !tbaa !24
  ret ptr %3
}

; Function Attrs: nounwind uwtable
define internal i32 @int_x509_param_set_hosts(ptr noundef %0, i32 noundef %1, ptr noundef %2, i64 noundef %3) #0 {
  %5 = alloca i32, align 4
  %6 = alloca ptr, align 8
  %7 = alloca i32, align 4
  %8 = alloca ptr, align 8
  %9 = alloca i64, align 8
  %10 = alloca ptr, align 8
  %11 = alloca i32, align 4
  store ptr %0, ptr %6, align 8, !tbaa !3
  store i32 %1, ptr %7, align 4, !tbaa !28
  store ptr %2, ptr %8, align 8, !tbaa !25
  store i64 %3, ptr %9, align 8, !tbaa !27
  call void @llvm.lifetime.start.p0(i64 8, ptr %10) #6
  %12 = load i64, ptr %9, align 8, !tbaa !27
  %13 = icmp eq i64 %12, 0
  br i1 %13, label %17, label %14

14:                                               ; preds = %4
  %15 = load ptr, ptr %8, align 8, !tbaa !25
  %16 = icmp eq ptr %15, null
  br i1 %16, label %17, label %26

17:                                               ; preds = %14, %4
  %18 = load ptr, ptr %8, align 8, !tbaa !25
  %19 = icmp ne ptr %18, null
  br i1 %19, label %20, label %23

20:                                               ; preds = %17
  %21 = load ptr, ptr %8, align 8, !tbaa !25
  %22 = call i64 @strlen(ptr noundef %21) #7
  br label %24

23:                                               ; preds = %17
  br label %24

24:                                               ; preds = %23, %20
  %25 = phi i64 [ %22, %20 ], [ 0, %23 ]
  store i64 %25, ptr %9, align 8, !tbaa !27
  br label %44

26:                                               ; preds = %14
  %27 = load ptr, ptr %8, align 8, !tbaa !25
  %28 = icmp ne ptr %27, null
  br i1 %28, label %29, label %43

29:                                               ; preds = %26
  %30 = load ptr, ptr %8, align 8, !tbaa !25
  %31 = load i64, ptr %9, align 8, !tbaa !27
  %32 = icmp ugt i64 %31, 1
  br i1 %32, label %33, label %36

33:                                               ; preds = %29
  %34 = load i64, ptr %9, align 8, !tbaa !27
  %35 = sub i64 %34, 1
  br label %38

36:                                               ; preds = %29
  %37 = load i64, ptr %9, align 8, !tbaa !27
  br label %38

38:                                               ; preds = %36, %33
  %39 = phi i64 [ %35, %33 ], [ %37, %36 ]
  %40 = call ptr @memchr(ptr noundef %30, i32 noundef 0, i64 noundef %39) #7
  %41 = icmp ne ptr %40, null
  br i1 %41, label %42, label %43

42:                                               ; preds = %38
  store i32 0, ptr %5, align 4
  store i32 1, ptr %11, align 4
  br label %121

43:                                               ; preds = %38, %26
  br label %44

44:                                               ; preds = %43, %24
  %45 = load i64, ptr %9, align 8, !tbaa !27
  %46 = icmp ugt i64 %45, 0
  br i1 %46, label %47, label %58

47:                                               ; preds = %44
  %48 = load ptr, ptr %8, align 8, !tbaa !25
  %49 = load i64, ptr %9, align 8, !tbaa !27
  %50 = sub i64 %49, 1
  %51 = getelementptr inbounds nuw i8, ptr %48, i64 %50
  %52 = load i8, ptr %51, align 1, !tbaa !40
  %53 = sext i8 %52 to i32
  %54 = icmp eq i32 %53, 0
  br i1 %54, label %55, label %58

55:                                               ; preds = %47
  %56 = load i64, ptr %9, align 8, !tbaa !27
  %57 = add i64 %56, -1
  store i64 %57, ptr %9, align 8, !tbaa !27
  br label %58

58:                                               ; preds = %55, %47, %44
  %59 = load i32, ptr %7, align 4, !tbaa !28
  %60 = icmp eq i32 %59, 0
  br i1 %60, label %61, label %69

61:                                               ; preds = %58
  %62 = load ptr, ptr %6, align 8, !tbaa !3
  %63 = getelementptr inbounds nuw %struct.X509_VERIFY_PARAM_st, ptr %62, i32 0, i32 9
  %64 = load ptr, ptr %63, align 8, !tbaa !18
  %65 = call ptr @ossl_check_OPENSSL_STRING_sk_type(ptr noundef %64)
  %66 = call ptr @ossl_check_OPENSSL_STRING_freefunc_type(ptr noundef @str_free)
  call void @OPENSSL_sk_pop_free(ptr noundef %65, ptr noundef %66)
  %67 = load ptr, ptr %6, align 8, !tbaa !3
  %68 = getelementptr inbounds nuw %struct.X509_VERIFY_PARAM_st, ptr %67, i32 0, i32 9
  store ptr null, ptr %68, align 8, !tbaa !18
  br label %69

69:                                               ; preds = %61, %58
  %70 = load ptr, ptr %8, align 8, !tbaa !25
  %71 = icmp eq ptr %70, null
  br i1 %71, label %75, label %72

72:                                               ; preds = %69
  %73 = load i64, ptr %9, align 8, !tbaa !27
  %74 = icmp eq i64 %73, 0
  br i1 %74, label %75, label %76

75:                                               ; preds = %72, %69
  store i32 1, ptr %5, align 4
  store i32 1, ptr %11, align 4
  br label %121

76:                                               ; preds = %72
  %77 = load ptr, ptr %8, align 8, !tbaa !25
  %78 = load i64, ptr %9, align 8, !tbaa !27
  %79 = call noalias ptr @CRYPTO_strndup(ptr noundef %77, i64 noundef %78, ptr noundef @.str, i32 noundef 60)
  store ptr %79, ptr %10, align 8, !tbaa !25
  %80 = load ptr, ptr %10, align 8, !tbaa !25
  %81 = icmp eq ptr %80, null
  br i1 %81, label %82, label %83

82:                                               ; preds = %76
  store i32 0, ptr %5, align 4
  store i32 1, ptr %11, align 4
  br label %121

83:                                               ; preds = %76
  %84 = load ptr, ptr %6, align 8, !tbaa !3
  %85 = getelementptr inbounds nuw %struct.X509_VERIFY_PARAM_st, ptr %84, i32 0, i32 9
  %86 = load ptr, ptr %85, align 8, !tbaa !18
  %87 = icmp eq ptr %86, null
  br i1 %87, label %88, label %95

88:                                               ; preds = %83
  %89 = call ptr @OPENSSL_sk_new_null()
  %90 = load ptr, ptr %6, align 8, !tbaa !3
  %91 = getelementptr inbounds nuw %struct.X509_VERIFY_PARAM_st, ptr %90, i32 0, i32 9
  store ptr %89, ptr %91, align 8, !tbaa !18
  %92 = icmp eq ptr %89, null
  br i1 %92, label %93, label %95

93:                                               ; preds = %88
  %94 = load ptr, ptr %10, align 8, !tbaa !25
  call void @CRYPTO_free(ptr noundef %94, ptr noundef @.str, i32 noundef 66)
  store i32 0, ptr %5, align 4
  store i32 1, ptr %11, align 4
  br label %121

95:                                               ; preds = %88, %83
  %96 = load ptr, ptr %6, align 8, !tbaa !3
  %97 = getelementptr inbounds nuw %struct.X509_VERIFY_PARAM_st, ptr %96, i32 0, i32 9
  %98 = load ptr, ptr %97, align 8, !tbaa !18
  %99 = call ptr @ossl_check_OPENSSL_STRING_sk_type(ptr noundef %98)
  %100 = load ptr, ptr %10, align 8, !tbaa !25
  %101 = call ptr @ossl_check_OPENSSL_STRING_type(ptr noundef %100)
  %102 = call i32 @OPENSSL_sk_push(ptr noundef %99, ptr noundef %101)
  %103 = icmp ne i32 %102, 0
  br i1 %103, label %120, label %104

104:                                              ; preds = %95
  %105 = load ptr, ptr %10, align 8, !tbaa !25
  call void @CRYPTO_free(ptr noundef %105, ptr noundef @.str, i32 noundef 71)
  %106 = load ptr, ptr %6, align 8, !tbaa !3
  %107 = getelementptr inbounds nuw %struct.X509_VERIFY_PARAM_st, ptr %106, i32 0, i32 9
  %108 = load ptr, ptr %107, align 8, !tbaa !18
  %109 = call ptr @ossl_check_const_OPENSSL_STRING_sk_type(ptr noundef %108)
  %110 = call i32 @OPENSSL_sk_num(ptr noundef %109)
  %111 = icmp eq i32 %110, 0
  br i1 %111, label %112, label %119

112:                                              ; preds = %104
  %113 = load ptr, ptr %6, align 8, !tbaa !3
  %114 = getelementptr inbounds nuw %struct.X509_VERIFY_PARAM_st, ptr %113, i32 0, i32 9
  %115 = load ptr, ptr %114, align 8, !tbaa !18
  %116 = call ptr @ossl_check_OPENSSL_STRING_sk_type(ptr noundef %115)
  call void @OPENSSL_sk_free(ptr noundef %116)
  %117 = load ptr, ptr %6, align 8, !tbaa !3
  %118 = getelementptr inbounds nuw %struct.X509_VERIFY_PARAM_st, ptr %117, i32 0, i32 9
  store ptr null, ptr %118, align 8, !tbaa !18
  br label %119

119:                                              ; preds = %112, %104
  store i32 0, ptr %5, align 4
  store i32 1, ptr %11, align 4
  br label %121

120:                                              ; preds = %95
  store i32 1, ptr %5, align 4
  store i32 1, ptr %11, align 4
  br label %121

121:                                              ; preds = %120, %119, %93, %82, %75, %42
  call void @llvm.lifetime.end.p0(i64 8, ptr %10) #6
  %122 = load i32, ptr %5, align 4
  ret i32 %122
}