; Function Attrs: nounwind uwtable
define internal fastcc range(i32 0, 2) i32 @int_x509_param_set_hosts(ptr noundef captures(none) %0, i32 noundef range(i32 0, 2) %1, ptr noundef %2, i64 noundef %3) unnamed_addr #0 {
  %5 = icmp eq i64 %3, 0
  %6 = icmp eq ptr %2, null
  %or.cond = or i1 %6, %5
  br i1 %or.cond, label %7, label %8

7:                                                ; preds = %4
  br i1 %6, label %.thread, label %13

8:                                                ; preds = %4
  %9 = icmp ugt i64 %3, 1
  %10 = sext i1 %9 to i64
  %11 = add i64 %3, %10
  %12 = tail call ptr @memchr(ptr noundef nonnull %2, i32 noundef 0, i64 noundef %11) #10
  %.not = icmp eq ptr %12, null
  br i1 %.not, label %.thread43, label %46

13:                                               ; preds = %7
  %14 = tail call i64 @strlen(ptr noundef nonnull dereferenceable(1) %2) #10
  %.not39 = icmp eq i64 %14, 0
  br i1 %.not39, label %.thread, label %.thread43

.thread43:                                        ; preds = %8, %13
  %.03346 = phi i64 [ %14, %13 ], [ %3, %8 ]
  %15 = getelementptr i8, ptr %2, i64 %.03346
  %16 = getelementptr i8, ptr %15, i64 -1
  %17 = load i8, ptr %16, align 1, !tbaa !26
  %18 = icmp eq i8 %17, 0
  %19 = sext i1 %18 to i64
  %spec.select = add i64 %.03346, %19
  br label %.thread

.thread:                                          ; preds = %7, %.thread43, %13
  %.1 = phi i64 [ 0, %13 ], [ %spec.select, %.thread43 ], [ 0, %7 ]
  %20 = icmp eq i32 %1, 0
  br i1 %20, label %21, label %24

21:                                               ; preds = %.thread
  %22 = getelementptr inbounds nuw i8, ptr %0, i64 56
  %23 = load ptr, ptr %22, align 8, !tbaa !16
  tail call void @OPENSSL_sk_pop_free(ptr noundef %23, ptr noundef nonnull @str_free) #9
  store ptr null, ptr %22, align 8, !tbaa !16
  br label %24

24:                                               ; preds = %21, %.thread
  %25 = icmp eq i64 %.1, 0
  %or.cond3 = or i1 %6, %25
  br i1 %or.cond3, label %46, label %26

26:                                               ; preds = %24
  %27 = tail call noalias ptr @CRYPTO_strndup(ptr noundef nonnull %2, i64 noundef %.1, ptr noundef nonnull @.str, i32 noundef 60) #9
  %28 = icmp eq ptr %27, null
  br i1 %28, label %46, label %29

29:                                               ; preds = %26
  %30 = getelementptr inbounds nuw i8, ptr %0, i64 56
  %31 = load ptr, ptr %30, align 8, !tbaa !16
  %32 = icmp eq ptr %31, null
  br i1 %32, label %33, label %37

33:                                               ; preds = %29
  %34 = tail call ptr @OPENSSL_sk_new_null() #9
  store ptr %34, ptr %30, align 8, !tbaa !16
  %35 = icmp eq ptr %34, null
  br i1 %35, label %36, label %37

36:                                               ; preds = %33
  tail call void @CRYPTO_free(ptr noundef nonnull %27, ptr noundef nonnull @.str, i32 noundef 66) #9
  br label %46

37:                                               ; preds = %33, %29
  %38 = phi ptr [ %34, %33 ], [ %31, %29 ]
  %39 = tail call i32 @OPENSSL_sk_push(ptr noundef nonnull %38, ptr noundef nonnull %27) #9
  %.not40 = icmp eq i32 %39, 0
  br i1 %.not40, label %40, label %46

40:                                               ; preds = %37
  tail call void @CRYPTO_free(ptr noundef nonnull %27, ptr noundef nonnull @.str, i32 noundef 71) #9
  %41 = load ptr, ptr %30, align 8, !tbaa !16
  %42 = tail call i32 @OPENSSL_sk_num(ptr noundef %41) #9
  %43 = icmp eq i32 %42, 0
  br i1 %43, label %44, label %46

44:                                               ; preds = %40
  %45 = load ptr, ptr %30, align 8, !tbaa !16
  tail call void @OPENSSL_sk_free(ptr noundef %45) #9
  store ptr null, ptr %30, align 8, !tbaa !16
  br label %46

46:                                               ; preds = %37, %40, %44, %26, %24, %8, %36
  %.0 = phi i32 [ 0, %36 ], [ 0, %8 ], [ 1, %24 ], [ 0, %26 ], [ 0, %44 ], [ 0, %40 ], [ 1, %37 ]
  ret i32 %.0
}